target datalayout = "e-m:e-p270:32:32-p271:32:32-p272:64:64-i64:64-i128:128-f80:128-n8:16:32:64-S128"
target triple = "x86_64-pc-linux-gnu"

%struct.sbc_dsp_context = type { i32, i8, [11 x i8], [2 x [328 x i16]], ptr, ptr, ptr, ptr, ptr, ptr, ptr, ptr }

; Function Attrs: inlinehint nounwind uwtable
define internal void @sbc_analyze_4b_8s_simd(ptr noundef %0, ptr noundef %1, ptr noundef %2, i32 noundef %3) #2 {
  %5 = alloca ptr, align 8
  %6 = alloca ptr, align 8
  %7 = alloca ptr, align 8
  %8 = alloca i32, align 4
  store ptr %0, ptr %5, align 8, !tbaa !4
  store ptr %1, ptr %6, align 8, !tbaa !20
  store ptr %2, ptr %7, align 8, !tbaa !22
  store i32 %3, ptr %8, align 4, !tbaa !24
  %9 = load ptr, ptr %5, align 8, !tbaa !4
  %10 = getelementptr inbounds nuw %struct.sbc_dsp_context, ptr %9, i32 0, i32 5
  %11 = load ptr, ptr %10, align 8, !tbaa !12
  %12 = load ptr, ptr %6, align 8, !tbaa !20
  %13 = getelementptr inbounds i16, ptr %12, i64 24
  %14 = load ptr, ptr %7, align 8, !tbaa !22
  call void %11(ptr noundef %13, ptr noundef %14, ptr noundef @sbcdsp_analysis_consts_fixed8_simd_odd)
  %15 = load i32, ptr %8, align 4, !tbaa !24
  %16 = load ptr, ptr %7, align 8, !tbaa !22
  %17 = sext i32 %15 to i64
  %18 = getelementptr inbounds i32, ptr %16, i64 %17
  store ptr %18, ptr %7, align 8, !tbaa !22
  %19 = load ptr, ptr %5, align 8, !tbaa !4
  %20 = getelementptr inbounds nuw %struct.sbc_dsp_context, ptr %19, i32 0, i32 5
  %21 = load ptr, ptr %20, align 8, !tbaa !12
  %22 = load ptr, ptr %6, align 8, !tbaa !20
  %23 = getelementptr inbounds i16, ptr %22, i64 16
  %24 = load ptr, ptr %7, align 8, !tbaa !22
  call void %21(ptr noundef %23, ptr noundef %24, ptr noundef @sbcdsp_analysis_consts_fixed8_simd_even)
  %25 = load i32, ptr %8, align 4, !tbaa !24
  %26 = load ptr, ptr %7, align 8, !tbaa !22
  %27 = sext i32 %25 to i64
  %28 = getelementptr inbounds i32, ptr %26, i64 %27
  store ptr %28, ptr %7, align 8, !tbaa !22
  %29 = load ptr, ptr %5, align 8, !tbaa !4
  %30 = getelementptr inbounds nuw %struct.sbc_dsp_context, ptr %29, i32 0, i32 5
  %31 = load ptr, ptr %30, align 8, !tbaa !12
  %32 = load ptr, ptr %6, align 8, !tbaa !20
  %33 = getelementptr inbounds i16, ptr %32, i64 8
  %34 = load ptr, ptr %7, align 8, !tbaa !22
  call void %31(ptr noundef %33, ptr noundef %34, ptr noundef @sbcdsp_analysis_consts_fixed8_simd_odd)
  %35 = load i32, ptr %8, align 4, !tbaa !24
  %36 = load ptr, ptr %7, align 8, !tbaa !22
  %37 = sext i32 %35 to i64
  %38 = getelementptr inbounds i32, ptr %36, i64 %37
  store ptr %38, ptr %7, align 8, !tbaa !22
  %39 = load ptr, ptr %5, align 8, !tbaa !4
  %40 = getelementptr inbounds nuw %struct.sbc_dsp_context, ptr %39, i32 0, i32 5
  %41 = load ptr, ptr %40, align 8, !tbaa !12
  %42 = load ptr, ptr %6, align 8, !tbaa !20
  %43 = getelementptr inbounds i16, ptr %42, i64 0
  %44 = load ptr, ptr %7, align 8, !tbaa !22
  call void %41(ptr noundef %43, ptr noundef %44, ptr noundef @sbcdsp_analysis_consts_fixed8_simd_even)
  ret void
}